; Function Attrs: mustprogress nofree norecurse nosync nounwind sspstrong willreturn memory(argmem: read) uwtable
define dso_local range(i32 0, 262145) i32 @pcie_doe_get_obj_len(ptr noundef readonly %obj) local_unnamed_addr #4 {
entry:
  %tobool.not = icmp eq ptr %obj, null
  br i1 %tobool.not, label %return, label %if.end

if.end:                                           ; preds = %entry
  %length = getelementptr inbounds nuw i8, ptr %obj, i64 4
  %0 = load i32, ptr %length, align 1
  %and = and i32 %0, 262143
  %tobool1.not = icmp eq i32 %and, 0
  %cond = select i1 %tobool1.not, i32 262144, i32 %and
  br label %return

return:                                           ; preds = %entry, %if.end
  %retval.0 = phi i32 [ %cond, %if.end ], [ 0, %entry ]
  ret i32 %retval.0
}